; Function Attrs: mustprogress uwtable
define hidden noundef i64 @_ZN4cvc58internal6theory7strings4Word9getLengthENS0_12NodeTemplateILb0EEE(ptr noundef readonly captures(none) %0) local_unnamed_addr #3 align 2 personality ptr @__gxx_personality_v0 {
  %2 = alloca %"class.cvc5::internal::FatalStream", align 1
  %3 = alloca %"class.cvc5::internal::NodeTemplate.85", align 8
  %4 = load ptr, ptr %0, align 8, !tbaa !28
  %5 = getelementptr inbounds nuw i8, ptr %4, i64 8
  %6 = load i64, ptr %5, align 8
  %7 = trunc i64 %6 to i32
  %8 = and i32 %7, 1023
  switch i32 %8, label %21 [
    i32 341, label %9
    i32 343, label %18
  ]

9:                                                ; preds = %1
  %10 = tail call noundef nonnull align 8 dereferenceable(24) ptr @_ZNK4cvc58internal4expr9NodeValue8getConstINS0_6StringEEERKT_v(ptr noundef nonnull align 8 dereferenceable(24) %4)
  %11 = getelementptr inbounds nuw i8, ptr %10, i64 8
  %12 = load ptr, ptr %11, align 8, !tbaa !26
  %13 = load ptr, ptr %10, align 8, !tbaa !11
  %14 = ptrtoint ptr %12 to i64
  %15 = ptrtoint ptr %13 to i64
  %16 = sub i64 %14, %15
  %17 = ashr exact i64 %16, 2
  br label %31

18:                                               ; preds = %1
  %19 = tail call noundef nonnull align 8 dereferenceable(32) ptr @_ZNK4cvc58internal4expr9NodeValue8getConstINS0_8SequenceEEERKT_v(ptr noundef nonnull align 8 dereferenceable(24) %4)
  %20 = tail call noundef i64 @_ZNK4cvc58internal8Sequence4sizeEv(ptr noundef nonnull align 8 dereferenceable(32) %19)
  br label %31

21:                                               ; preds = %1
  call void @llvm.lifetime.start.p0(i64 1, ptr nonnull %2) #21
  call void @_ZN4cvc58internal11FatalStreamC1EPKcS3_i(ptr noundef nonnull align 1 dereferenceable(1) %2, ptr noundef nonnull @__PRETTY_FUNCTION__._ZN4cvc58internal6theory7strings4Word9getLengthENS0_12NodeTemplateILb0EEE, ptr noundef nonnull @.str, i32 noundef 90)
  %22 = invoke noundef nonnull align 8 dereferenceable(8) ptr @_ZN4cvc58internal11FatalStream6streamEv(ptr noundef nonnull align 1 dereferenceable(1) %2)
          to label %23 unwind label %29

23:                                               ; preds = %21
  %24 = invoke noundef nonnull align 8 dereferenceable(8) ptr @_ZSt16__ostream_insertIcSt11char_traitsIcEERSt13basic_ostreamIT_T0_ES6_PKS3_l(ptr noundef nonnull align 8 dereferenceable(8) %22, ptr noundef nonnull @.str.1, i64 noundef 31)
          to label %_ZStlsISt11char_traitsIcEERSt13basic_ostreamIcT_ES5_PKc.exit unwind label %29

_ZStlsISt11char_traitsIcEERSt13basic_ostreamIcT_ES5_PKc.exit: ; preds = %23
  %25 = invoke noundef nonnull align 8 dereferenceable(8) ptr @_ZSt16__ostream_insertIcSt11char_traitsIcEERSt13basic_ostreamIT_T0_ES6_PKS3_l(ptr noundef nonnull align 8 dereferenceable(8) %22, ptr noundef nonnull @.str.2, i64 noundef 19)
          to label %_ZStlsISt11char_traitsIcEERSt13basic_ostreamIcT_ES5_PKc.exit4 unwind label %29

_ZStlsISt11char_traitsIcEERSt13basic_ostreamIcT_ES5_PKc.exit4: ; preds = %_ZStlsISt11char_traitsIcEERSt13basic_ostreamIcT_ES5_PKc.exit
  %26 = load ptr, ptr %0, align 8, !tbaa !28
  store ptr %26, ptr %3, align 8, !tbaa !28
  %27 = invoke noundef nonnull align 8 dereferenceable(8) ptr @_ZN4cvc58internallsERSoNS0_12NodeTemplateILb0EEE(ptr noundef nonnull align 8 dereferenceable(8) %22, ptr noundef nonnull %3)
          to label %28 unwind label %29

28:                                               ; preds = %_ZStlsISt11char_traitsIcEERSt13basic_ostreamIcT_ES5_PKc.exit4
  call void @_ZN4cvc58internal11FatalStreamD1Ev(ptr noundef nonnull align 1 dereferenceable(1) %2) #23
  unreachable

29:                                               ; preds = %21, %23, %_ZStlsISt11char_traitsIcEERSt13basic_ostreamIcT_ES5_PKc.exit, %_ZStlsISt11char_traitsIcEERSt13basic_ostreamIcT_ES5_PKc.exit4
  %30 = landingpad { ptr, i32 }
          cleanup
  call void @_ZN4cvc58internal11FatalStreamD1Ev(ptr noundef nonnull align 1 dereferenceable(1) %2) #23
  unreachable

31:                                               ; preds = %18, %9
  %.0 = phi i64 [ %17, %9 ], [ %20, %18 ]
  ret i64 %.0
}